(dp0
S'CStyleCastExpr'
p1
cnumpy.core.multiarray
_reconstruct
p2
(cnumpy
ndarray
p3
(I0
tp4
S'b'
p5
tp6
Rp7
(I1
(I1
tp8
cnumpy
dtype
p9
(S'f8'
p10
I0
I1
tp11
Rp12
(I3
S'<'
p13
NNNI-1
I-1
I0
tp14
bI00
S'\x00\x00\x00\x00\x00\x00\xf0?'
p15
tp16
bsS'BinaryOperator'
p17
g2
(g3
(I0
tp18
g5
tp19
Rp20
(I1
(I2
tp21
g12
I00
S'\x00\x00\x00\x00\x00\x00\xf0?\x9a\x99\x99\x99\x99\x99\xb9?'
p22
tp23
bsS'IfStmt'
p24
g2
(g3
(I0
tp25
g5
tp26
Rp27
(I1
(I1
tp28
g12
I00
S'\x00\x00\x00\x00\x00\x00\xf0?'
p29
tp30
bsS'UnexposedExpr'
p31
g2
(g3
(I0
tp32
g5
tp33
Rp34
(I1
(I1
tp35
g12
I00
S'\x00\x00\x00\x00\x00\x00\xf0?'
p36
tp37
bsS'ParenExpr'
p38
g2
(g3
(I0
tp39
g5
tp40
Rp41
(I1
(I1
tp42
g12
I00
S'\x00\x00\x00\x00\x00\x00\xf0?'
p43
tp44
bsS'CompoundAssignOperator'
p45
g2
(g3
(I0
tp46
g5
tp47
Rp48
(I1
(I2
tp49
g12
I00
S'\x00\x00\x00\x00\x00\x00\xf0?\x9a\x99\x99\x99\x99\x99\xb9?'
p50
tp51
bsS'VarDecl'
p52
g2
(g3
(I0
tp53
g5
tp54
Rp55
(I1
(I1
tp56
g12
I00
S'\x00\x00\x00\x00\x00\x00\xf0?'
p57
tp58
bsS'DeclRefExpr'
p59
g2
(g3
(I0
tp60
g5
tp61
Rp62
(I1
(I0
tp63
g9
(S'f8'
p64
I0
I1
tp65
Rp66
(I3
S'<'
p67
NNNI-1
I-1
I0
tp68
bI00
S''
p69
tp70
bsS'ParmDecl'
p71
g2
(g3
(I0
tp72
g5
tp73
Rp74
(I1
(I0
tp75
g66
I00
g69
tp76
bsS'CompoundStmt'
p77
g2
(g3
(I0
tp78
g5
tp79
Rp80
(I1
(I1
tp81
g12
I00
S'\x00\x00\x00\x00\x00\x00\xf0?'
p82
tp83
bsS'WhileStmt'
p84
g2
(g3
(I0
tp85
g5
tp86
Rp87
(I1
(I1
tp88
g12
I00
S'\x00\x00\x00\x00\x00\x00\xf0?'
p89
tp90
bsS'UnaryOperator'
p91
g2
(g3
(I0
tp92
g5
tp93
Rp94
(I1
(I1
tp95
g12
I00
S'\x00\x00\x00\x00\x00\x00\xf0?'
p96
tp97
bsS'ForStmt'
p98
g2
(g3
(I0
tp99
g5
tp100
Rp101
(I1
(I1
tp102
g12
I00
S'\x00\x00\x00\x00\x00\x00\xf0?'
p103
tp104
bsS'ArraySubscriptExpr'
p105
g2
(g3
(I0
tp106
g5
tp107
Rp108
(I1
(I2
tp109
g12
I00
S'\x00\x00\x00\x00\x00\x00\xf0?\x9a\x99\x99\x99\x99\x99\xb9?'
p110
tp111
bsS'FloatingLiteral'
p112
g2
(g3
(I0
tp113
g5
tp114
Rp115
(I1
(I0
tp116
g66
I00
g69
tp117
bsS'ReturnStmt'
p118
g2
(g3
(I0
tp119
g5
tp120
Rp121
(I1
(I1
tp122
g12
I00
S'\x00\x00\x00\x00\x00\x00\xf0?'
p123
tp124
bsS'root'
p125
g2
(g3
(I0
tp126
g5
tp127
Rp128
(I1
(I1
tp129
g12
I00
S'\x00\x00\x00\x00\x00\x00\xf0?'
p130
tp131
bsS'IntegerLiteral'
p132
g2
(g3
(I0
tp133
g5
tp134
Rp135
(I1
(I0
tp136
g66
I00
g69
tp137
bsS'DeclStmt'
p138
g2
(g3
(I0
tp139
g5
tp140
Rp141
(I1
(I1
tp142
g12
I00
S'\x00\x00\x00\x00\x00\x00\xf0?'
p143
tp144
bsS'CallExpr'
p145
g2
(g3
(I0
tp146
g5
tp147
Rp148
(I1
(I1
tp149
g12
I00
S'\x00\x00\x00\x00\x00\x00\xf0?'
p150
tp151
bs.